target datalayout = "e-m:e-p270:32:32-p271:32:32-p272:64:64-i64:64-i128:128-f80:128-n8:16:32:64-S128"
target triple = "x86_64-pc-linux-gnu"

%struct.Mpm_Man_t_ = type { ptr, ptr, i32, i32, i32, ptr, i32, i32, i64, i64, ptr, i32, [33 x ptr], [33 x %struct.Mpm_Uni_t_], %struct.Vec_Ptr_t_, ptr, ptr, [3 x i32], [3 x [33 x ptr]], [3 x [33 x i64]], ptr, i32, i32, [64 x i64], [64 x i64], [64 x i64], [64 x i64], ptr, ptr, ptr, ptr, [720 x [6 x i8]], ptr, [3 x i32], [3 x i32], ptr, %struct.Vec_Int_t_, %struct.Vec_Int_t_, %struct.Vec_Int_t_, %struct.Vec_Int_t_, %struct.Vec_Int_t_, %struct.Vec_Int_t_, %struct.Vec_Int_t_, %struct.Vec_Int_t_, %struct.Vec_Int_t_, [600 x i32], i32, i32, i32, i32, i32, i64, i64, i64, i64, i64, i64, i64 }
%struct.Mpm_Uni_t_ = type { i32, i32, i32, i32, i64, i32, %struct.Mpm_Cut_t_, [11 x i32] }
%struct.Mpm_Cut_t_ = type { i32, i32, [1 x i32] }
%struct.Vec_Ptr_t_ = type { i32, i32, ptr }
%struct.Vec_Int_t_ = type { i32, i32, ptr }
%struct.Mpm_Par_t_ = type { ptr, ptr, i32, i32, i32, i32, i32, i32, i32, i32, i32, i32, i32, i32, i32 }
%struct.Mig_Man_t_ = type { ptr, i32, i32, i32, %struct.Vec_Ptr_t_, %struct.Vec_Int_t_, %struct.Vec_Int_t_, ptr, i32, i32, %struct.Vec_Int_t_, %struct.Vec_Int_t_, %struct.Vec_Int_t_, %struct.Vec_Int_t_, %struct.Vec_Int_t_, ptr }

@.str.3 = private unnamed_addr constant [99 x i8] c"K = %d.  C = %d.  Cand = %d. XOR = %d. MUX = %d. Choice = %d.  CutMin = %d. Truth = %d. DSD = %d.\0A\00", align 1

; Function Attrs: inlinehint nounwind uwtable
define internal i32 @Vec_IntSize(ptr noundef %0) #4 {
  %2 = alloca ptr, align 8
  store ptr %0, ptr %2, align 8, !tbaa !65
  %3 = load ptr, ptr %2, align 8, !tbaa !65
  %4 = getelementptr inbounds nuw %struct.Vec_Int_t_, ptr %3, i32 0, i32 1
  %5 = load i32, ptr %4, align 4, !tbaa !68
  ret i32 %5
}

; Function Attrs: inlinehint nounwind uwtable
define internal i32 @Mig_ManNodeNum(ptr noundef %0) #4 {
  %2 = alloca ptr, align 8
  store ptr %0, ptr %2, align 8, !tbaa !3
  %3 = load ptr, ptr %2, align 8, !tbaa !3
  %4 = getelementptr inbounds nuw %struct.Mig_Man_t_, ptr %3, i32 0, i32 1
  %5 = load i32, ptr %4, align 8, !tbaa !69
  %6 = load ptr, ptr %2, align 8, !tbaa !3
  %7 = getelementptr inbounds nuw %struct.Mig_Man_t_, ptr %6, i32 0, i32 5
  %8 = call i32 @Vec_IntSize(ptr noundef %7)
  %9 = sub nsw i32 %5, %8
  %10 = load ptr, ptr %2, align 8, !tbaa !3
  %11 = getelementptr inbounds nuw %struct.Mig_Man_t_, ptr %10, i32 0, i32 6
  %12 = call i32 @Vec_IntSize(ptr noundef %11)
  %13 = sub nsw i32 %9, %12
  %14 = sub nsw i32 %13, 1
  ret i32 %14
}

; Function Attrs: inlinehint nounwind uwtable
define internal i32 @Mig_ManCiNum(ptr noundef %0) #4 {
  %2 = alloca ptr, align 8
  store ptr %0, ptr %2, align 8, !tbaa !3
  %3 = load ptr, ptr %2, align 8, !tbaa !3
  %4 = getelementptr inbounds nuw %struct.Mig_Man_t_, ptr %3, i32 0, i32 5
  %5 = call i32 @Vec_IntSize(ptr noundef %4)
  ret i32 %5
}

; Function Attrs: inlinehint nounwind uwtable
define internal i32 @Mig_ManCandNum(ptr noundef %0) #4 {
  %2 = alloca ptr, align 8
  store ptr %0, ptr %2, align 8, !tbaa !3
  %3 = load ptr, ptr %2, align 8, !tbaa !3
  %4 = call i32 @Mig_ManCiNum(ptr noundef %3)
  %5 = load ptr, ptr %2, align 8, !tbaa !3
  %6 = call i32 @Mig_ManNodeNum(ptr noundef %5)
  %7 = add nsw i32 %4, %6
  ret i32 %7
}

; Function Attrs: nounwind uwtable
define void @Mpm_ManPrintStatsInit(ptr noundef %0) #0 {
  %2 = alloca ptr, align 8
  store ptr %0, ptr %2, align 8, !tbaa !10
  %3 = load ptr, ptr %2, align 8, !tbaa !10
  %4 = getelementptr inbounds nuw %struct.Mpm_Man_t_, ptr %3, i32 0, i32 2
  %5 = load i32, ptr %4, align 8, !tbaa !35
  %6 = load ptr, ptr %2, align 8, !tbaa !10
  %7 = getelementptr inbounds nuw %struct.Mpm_Man_t_, ptr %6, i32 0, i32 3
  %8 = load i32, ptr %7, align 4, !tbaa !39
  %9 = load ptr, ptr %2, align 8, !tbaa !10
  %10 = getelementptr inbounds nuw %struct.Mpm_Man_t_, ptr %9, i32 0, i32 0
  %11 = load ptr, ptr %10, align 8, !tbaa !12
  %12 = call i32 @Mig_ManCandNum(ptr noundef %11)
  %13 = load ptr, ptr %2, align 8, !tbaa !10
  %14 = getelementptr inbounds nuw %struct.Mpm_Man_t_, ptr %13, i32 0, i32 0
  %15 = load ptr, ptr %14, align 8, !tbaa !12
  %16 = call i32 @Mig_ManXorNum(ptr noundef %15)
  %17 = load ptr, ptr %2, align 8, !tbaa !10
  %18 = getelementptr inbounds nuw %struct.Mpm_Man_t_, ptr %17, i32 0, i32 0
  %19 = load ptr, ptr %18, align 8, !tbaa !12
  %20 = call i32 @Mig_ManMuxNum(ptr noundef %19)
  %21 = load ptr, ptr %2, align 8, !tbaa !10
  %22 = getelementptr inbounds nuw %struct.Mpm_Man_t_, ptr %21, i32 0, i32 0
  %23 = load ptr, ptr %22, align 8, !tbaa !12
  %24 = getelementptr inbounds nuw %struct.Mig_Man_t_, ptr %23, i32 0, i32 3
  %25 = load i32, ptr %24, align 8, !tbaa !120
  %26 = load ptr, ptr %2, align 8, !tbaa !10
  %27 = getelementptr inbounds nuw %struct.Mpm_Man_t_, ptr %26, i32 0, i32 1
  %28 = load ptr, ptr %27, align 8, !tbaa !28
  %29 = getelementptr inbounds nuw %struct.Mpm_Par_t_, ptr %28, i32 0, i32 7
  %30 = load i32, ptr %29, align 4, !tbaa !121
  %31 = load ptr, ptr %2, align 8, !tbaa !10
  %32 = getelementptr inbounds nuw %struct.Mpm_Man_t_, ptr %31, i32 0, i32 1
  %33 = load ptr, ptr %32, align 8, !tbaa !28
  %34 = getelementptr inbounds nuw %struct.Mpm_Par_t_, ptr %33, i32 0, i32 5
  %35 = load i32, ptr %34, align 4, !tbaa !36
  %36 = load ptr, ptr %2, align 8, !tbaa !10
  %37 = getelementptr inbounds nuw %struct.Mpm_Man_t_, ptr %36, i32 0, i32 1
  %38 = load ptr, ptr %37, align 8, !tbaa !28
  %39 = getelementptr inbounds nuw %struct.Mpm_Par_t_, ptr %38, i32 0, i32 6
  %40 = load i32, ptr %39, align 8, !tbaa !48
  %41 = call i32 (ptr, ...) @printf(ptr noundef @.str.3, i32 noundef %5, i32 noundef %8, i32 noundef %12, i32 noundef %16, i32 noundef %20, i32 noundef %25, i32 noundef %30, i32 noundef %35, i32 noundef %40)
  ret void
}