; Function Attrs: nounwind uwtable
define void @Mpm_ManPrintStatsInit(ptr noundef readonly captures(none) %0) local_unnamed_addr #0 {
  %2 = getelementptr inbounds nuw i8, ptr %0, i64 16
  %3 = load i32, ptr %2, align 8, !tbaa !31
  %4 = getelementptr inbounds nuw i8, ptr %0, i64 20
  %5 = load i32, ptr %4, align 4, !tbaa !35
  %6 = load ptr, ptr %0, align 8, !tbaa !3
  %7 = getelementptr i8, ptr %6, i64 44
  %.val.i = load i32, ptr %7, align 4, !tbaa !58
  %8 = getelementptr inbounds nuw i8, ptr %6, i64 8
  %9 = load i32, ptr %8, align 8, !tbaa !53
  %10 = getelementptr i8, ptr %6, i64 60
  %.val.i.i = load i32, ptr %10, align 4, !tbaa !58
  %11 = add i32 %.val.i.i, %.val.i
  %12 = xor i32 %11, -1
  %13 = add i32 %9, %.val.i
  %14 = add i32 %13, %12
  %15 = tail call i32 @Mig_ManXorNum(ptr noundef %6) #18
  %16 = load ptr, ptr %0, align 8, !tbaa !3
  %17 = tail call i32 @Mig_ManMuxNum(ptr noundef %16) #18
  %18 = load ptr, ptr %0, align 8, !tbaa !3
  %19 = getelementptr inbounds nuw i8, ptr %18, i64 16
  %20 = load i32, ptr %19, align 8, !tbaa !127
  %21 = getelementptr inbounds nuw i8, ptr %0, i64 8
  %22 = load ptr, ptr %21, align 8, !tbaa !24
  %23 = getelementptr inbounds nuw i8, ptr %22, i64 36
  %24 = load i32, ptr %23, align 4, !tbaa !128
  %25 = getelementptr inbounds nuw i8, ptr %22, i64 28
  %26 = load i32, ptr %25, align 4, !tbaa !32
  %27 = getelementptr inbounds nuw i8, ptr %22, i64 32
  %28 = load i32, ptr %27, align 8, !tbaa !73
  %29 = tail call i32 (ptr, ...) @printf(ptr noundef nonnull dereferenceable(1) @.str.3, i32 noundef %3, i32 noundef %5, i32 noundef %14, i32 noundef %15, i32 noundef %17, i32 noundef %20, i32 noundef %24, i32 noundef %26, i32 noundef %28)
  ret void
}